; Function Attrs: nounwind uwtable
define internal noundef ptr @_lsprof_Profiler__creturn_callback(ptr noundef %0, ptr noundef readonly captures(none) %1, i64 noundef %2) #0 {
  %or.cond = icmp eq i64 %2, 4
  br i1 %or.cond, label %6, label %4

4:                                                ; preds = %3
  %5 = tail call i32 @_PyArg_CheckPositional(ptr noundef nonnull @.str.13, i64 noundef %2, i64 noundef 4, i64 noundef 4) #5
  %.not = icmp eq i32 %5, 0
  br i1 %.not, label %_lsprof_Profiler__creturn_callback_impl.exit, label %6

6:                                                ; preds = %3, %4
  %7 = getelementptr i8, ptr %1, i64 16
  %8 = load ptr, ptr %7, align 8, !tbaa !48
  %9 = getelementptr i8, ptr %1, i64 24
  %10 = load ptr, ptr %9, align 8, !tbaa !48
  %11 = getelementptr inbounds nuw i8, ptr %0, i64 40
  %12 = load i32, ptr %11, align 8, !tbaa !26
  %13 = and i32 %12, 4
  %.not.i = icmp eq i32 %13, 0
  br i1 %.not.i, label %_lsprof_Profiler__creturn_callback_impl.exit, label %14

14:                                               ; preds = %6
  %15 = getelementptr inbounds nuw i8, ptr %0, i64 72
  %16 = load ptr, ptr %15, align 8, !tbaa !53
  %17 = getelementptr i8, ptr %8, i64 8
  %.val21.i.i = load ptr, ptr %17, align 8, !tbaa !3
  %.not.i.i.i = icmp eq ptr %.val21.i.i, @PyCFunction_Type
  br i1 %.not.i.i.i, label %PyObject_TypeCheck.exit.thread.i.i, label %PyObject_TypeCheck.exit.i.i

PyObject_TypeCheck.exit.i.i:                      ; preds = %14
  %18 = tail call i32 @PyType_IsSubtype(ptr noundef %.val21.i.i, ptr noundef nonnull @PyCFunction_Type) #5
  %.not31.i.i = icmp eq i32 %18, 0
  br i1 %.not31.i.i, label %23, label %PyObject_TypeCheck.exit.thread.i.i

PyObject_TypeCheck.exit.thread.i.i:               ; preds = %PyObject_TypeCheck.exit.i.i, %14
  %19 = load i32, ptr %8, align 8, !tbaa !9
  %20 = icmp slt i32 %19, 0
  br i1 %20, label %34, label %21

21:                                               ; preds = %PyObject_TypeCheck.exit.thread.i.i
  %22 = add nuw i32 %19, 1
  store i32 %22, ptr %8, align 8, !tbaa !9
  br label %34

23:                                               ; preds = %PyObject_TypeCheck.exit.i.i
  %.val.i.i = load ptr, ptr %17, align 8, !tbaa !3
  %24 = icmp ne ptr %.val.i.i, @PyMethodDescr_Type
  %25 = icmp eq ptr %10, %16
  %or.cond.i.i = or i1 %25, %24
  br i1 %or.cond.i.i, label %_lsprof_Profiler__creturn_callback_impl.exit, label %26

26:                                               ; preds = %23
  %27 = load ptr, ptr getelementptr inbounds nuw (i8, ptr @PyMethodDescr_Type, i64 272), align 8, !tbaa !10
  %28 = getelementptr i8, ptr %10, i64 8
  %.val20.i.i = load ptr, ptr %28, align 8, !tbaa !3
  %29 = tail call ptr %27(ptr noundef nonnull %8, ptr noundef %10, ptr noundef %.val20.i.i) #5
  %30 = icmp eq ptr %29, null
  br i1 %30, label %_lsprof_Profiler__creturn_callback_impl.exit, label %31

31:                                               ; preds = %26
  %32 = getelementptr i8, ptr %29, i64 8
  %.val22.i.i = load ptr, ptr %32, align 8, !tbaa !3
  %.not.i23.i.i = icmp eq ptr %.val22.i.i, @PyCFunction_Type
  br i1 %.not.i23.i.i, label %34, label %PyObject_TypeCheck.exit24.i.i

PyObject_TypeCheck.exit24.i.i:                    ; preds = %31
  %33 = tail call i32 @PyType_IsSubtype(ptr noundef %.val22.i.i, ptr noundef nonnull @PyCFunction_Type) #5
  %.fr.i.i = freeze i32 %33
  %.not.i9.i = icmp eq i32 %.fr.i.i, 0
  br i1 %.not.i9.i, label %_lsprof_Profiler__creturn_callback_impl.exit, label %34

34:                                               ; preds = %PyObject_TypeCheck.exit24.i.i, %31, %21, %PyObject_TypeCheck.exit.thread.i.i
  %.014.i.ph.i = phi ptr [ %29, %PyObject_TypeCheck.exit24.i.i ], [ %29, %31 ], [ %8, %21 ], [ %8, %PyObject_TypeCheck.exit.thread.i.i ]
  %35 = getelementptr inbounds nuw i8, ptr %0, i64 24
  %36 = load ptr, ptr %35, align 8, !tbaa !31
  %37 = icmp eq ptr %36, null
  br i1 %37, label %ptrace_leave_call.exit.i, label %38

38:                                               ; preds = %34
  %39 = getelementptr inbounds nuw i8, ptr %.014.i.ph.i, i64 16
  %40 = load ptr, ptr %39, align 8, !tbaa !74
  %41 = getelementptr inbounds nuw i8, ptr %0, i64 16
  %42 = tail call ptr @RotatingTree_Get(ptr noundef nonnull %41, ptr noundef %40) #5
  %.not.i10.i = icmp eq ptr %42, null
  br i1 %.not.i10.i, label %44, label %43

43:                                               ; preds = %38
  tail call fastcc void @Stop(ptr noundef nonnull %0, ptr noundef %36, ptr noundef %42)
  br label %47

44:                                               ; preds = %38
  %45 = getelementptr inbounds nuw i8, ptr %36, i64 16
  %46 = load ptr, ptr %45, align 8, !tbaa !35
  store ptr %46, ptr %35, align 8, !tbaa !31
  br label %47

47:                                               ; preds = %44, %43
  %48 = getelementptr inbounds nuw i8, ptr %0, i64 32
  %49 = load ptr, ptr %48, align 8, !tbaa !39
  %50 = getelementptr inbounds nuw i8, ptr %36, i64 16
  store ptr %49, ptr %50, align 8, !tbaa !35
  store ptr %36, ptr %48, align 8, !tbaa !39
  br label %ptrace_leave_call.exit.i

ptrace_leave_call.exit.i:                         ; preds = %47, %34
  %51 = load i32, ptr %.014.i.ph.i, align 8, !tbaa !9
  %.not.i.i = icmp sgt i32 %51, -1
  br i1 %.not.i.i, label %52, label %_lsprof_Profiler__creturn_callback_impl.exit

52:                                               ; preds = %ptrace_leave_call.exit.i
  %53 = add nsw i32 %51, -1
  store i32 %53, ptr %.014.i.ph.i, align 8, !tbaa !9
  %54 = icmp eq i32 %53, 0
  br i1 %54, label %55, label %_lsprof_Profiler__creturn_callback_impl.exit

55:                                               ; preds = %52
  tail call void @_Py_Dealloc(ptr noundef nonnull %.014.i.ph.i) #5
  br label %_lsprof_Profiler__creturn_callback_impl.exit

_lsprof_Profiler__creturn_callback_impl.exit:     ; preds = %55, %52, %ptrace_leave_call.exit.i, %PyObject_TypeCheck.exit24.i.i, %26, %23, %6, %4
  %.0 = phi ptr [ null, %4 ], [ @_Py_NoneStruct, %6 ], [ @_Py_NoneStruct, %23 ], [ @_Py_NoneStruct, %26 ], [ @_Py_NoneStruct, %PyObject_TypeCheck.exit24.i.i ], [ @_Py_NoneStruct, %ptrace_leave_call.exit.i ], [ @_Py_NoneStruct, %52 ], [ @_Py_NoneStruct, %55 ]
  ret ptr %.0
}